; Function Attrs: mustprogress nounwind uwtable
define void @_ZN2cv4rgbd13OdometryFrame15releasePyramidsEv(ptr noundef nonnull align 8 captures(none) dereferenceable(616) %0) local_unnamed_addr #5 align 2 personality ptr @__gxx_personality_v0 {
  %2 = getelementptr inbounds nuw i8, ptr %0, i64 400
  %3 = load ptr, ptr %2, align 8, !tbaa !61
  %4 = getelementptr inbounds nuw i8, ptr %0, i64 408
  %5 = load ptr, ptr %4, align 8, !tbaa !64
  %.not.i.i = icmp eq ptr %5, %3
  br i1 %.not.i.i, label %_ZNSt6vectorIN2cv3MatESaIS1_EE5clearEv.exit, label %.lr.ph.i.i.i.i.i

.lr.ph.i.i.i.i.i:                                 ; preds = %1, %.lr.ph.i.i.i.i.i
  %.05.i.i.i.i.i = phi ptr [ %6, %.lr.ph.i.i.i.i.i ], [ %3, %1 ]
  tail call void @_ZN2cv3MatD1Ev(ptr noundef nonnull align 8 dereferenceable(96) %.05.i.i.i.i.i) #31
  %6 = getelementptr inbounds nuw i8, ptr %.05.i.i.i.i.i, i64 96
  %.not.i.i.i.i.i = icmp eq ptr %6, %5
  br i1 %.not.i.i.i.i.i, label %_ZSt8_DestroyIPN2cv3MatES1_EvT_S3_RSaIT0_E.exit.i.i, label %.lr.ph.i.i.i.i.i, !llvm.loop !65

_ZSt8_DestroyIPN2cv3MatES1_EvT_S3_RSaIT0_E.exit.i.i: ; preds = %.lr.ph.i.i.i.i.i
  store ptr %3, ptr %4, align 8, !tbaa !64
  br label %_ZNSt6vectorIN2cv3MatESaIS1_EE5clearEv.exit

_ZNSt6vectorIN2cv3MatESaIS1_EE5clearEv.exit:      ; preds = %1, %_ZSt8_DestroyIPN2cv3MatES1_EvT_S3_RSaIT0_E.exit.i.i
  %7 = getelementptr inbounds nuw i8, ptr %0, i64 424
  %8 = load ptr, ptr %7, align 8, !tbaa !61
  %9 = getelementptr inbounds nuw i8, ptr %0, i64 432
  %10 = load ptr, ptr %9, align 8, !tbaa !64
  %.not.i.i1 = icmp eq ptr %10, %8
  br i1 %.not.i.i1, label %_ZNSt6vectorIN2cv3MatESaIS1_EE5clearEv.exit6, label %.lr.ph.i.i.i.i.i2

.lr.ph.i.i.i.i.i2:                                ; preds = %_ZNSt6vectorIN2cv3MatESaIS1_EE5clearEv.exit, %.lr.ph.i.i.i.i.i2
  %.05.i.i.i.i.i3 = phi ptr [ %11, %.lr.ph.i.i.i.i.i2 ], [ %8, %_ZNSt6vectorIN2cv3MatESaIS1_EE5clearEv.exit ]
  tail call void @_ZN2cv3MatD1Ev(ptr noundef nonnull align 8 dereferenceable(96) %.05.i.i.i.i.i3) #31
  %11 = getelementptr inbounds nuw i8, ptr %.05.i.i.i.i.i3, i64 96
  %.not.i.i.i.i.i4 = icmp eq ptr %11, %10
  br i1 %.not.i.i.i.i.i4, label %_ZSt8_DestroyIPN2cv3MatES1_EvT_S3_RSaIT0_E.exit.i.i5, label %.lr.ph.i.i.i.i.i2, !llvm.loop !65

_ZSt8_DestroyIPN2cv3MatES1_EvT_S3_RSaIT0_E.exit.i.i5: ; preds = %.lr.ph.i.i.i.i.i2
  store ptr %8, ptr %9, align 8, !tbaa !64
  br label %_ZNSt6vectorIN2cv3MatESaIS1_EE5clearEv.exit6

_ZNSt6vectorIN2cv3MatESaIS1_EE5clearEv.exit6:     ; preds = %_ZNSt6vectorIN2cv3MatESaIS1_EE5clearEv.exit, %_ZSt8_DestroyIPN2cv3MatES1_EvT_S3_RSaIT0_E.exit.i.i5
  %12 = getelementptr inbounds nuw i8, ptr %0, i64 448
  %13 = load ptr, ptr %12, align 8, !tbaa !61
  %14 = getelementptr inbounds nuw i8, ptr %0, i64 456
  %15 = load ptr, ptr %14, align 8, !tbaa !64
  %.not.i.i7 = icmp eq ptr %15, %13
  br i1 %.not.i.i7, label %_ZNSt6vectorIN2cv3MatESaIS1_EE5clearEv.exit12, label %.lr.ph.i.i.i.i.i8

.lr.ph.i.i.i.i.i8:                                ; preds = %_ZNSt6vectorIN2cv3MatESaIS1_EE5clearEv.exit6, %.lr.ph.i.i.i.i.i8
  %.05.i.i.i.i.i9 = phi ptr [ %16, %.lr.ph.i.i.i.i.i8 ], [ %13, %_ZNSt6vectorIN2cv3MatESaIS1_EE5clearEv.exit6 ]
  tail call void @_ZN2cv3MatD1Ev(ptr noundef nonnull align 8 dereferenceable(96) %.05.i.i.i.i.i9) #31
  %16 = getelementptr inbounds nuw i8, ptr %.05.i.i.i.i.i9, i64 96
  %.not.i.i.i.i.i10 = icmp eq ptr %16, %15
  br i1 %.not.i.i.i.i.i10, label %_ZSt8_DestroyIPN2cv3MatES1_EvT_S3_RSaIT0_E.exit.i.i11, label %.lr.ph.i.i.i.i.i8, !llvm.loop !65

_ZSt8_DestroyIPN2cv3MatES1_EvT_S3_RSaIT0_E.exit.i.i11: ; preds = %.lr.ph.i.i.i.i.i8
  store ptr %13, ptr %14, align 8, !tbaa !64
  br label %_ZNSt6vectorIN2cv3MatESaIS1_EE5clearEv.exit12

_ZNSt6vectorIN2cv3MatESaIS1_EE5clearEv.exit12:    ; preds = %_ZNSt6vectorIN2cv3MatESaIS1_EE5clearEv.exit6, %_ZSt8_DestroyIPN2cv3MatES1_EvT_S3_RSaIT0_E.exit.i.i11
  %17 = getelementptr inbounds nuw i8, ptr %0, i64 472
  %18 = load ptr, ptr %17, align 8, !tbaa !61
  %19 = getelementptr inbounds nuw i8, ptr %0, i64 480
  %20 = load ptr, ptr %19, align 8, !tbaa !64
  %.not.i.i13 = icmp eq ptr %20, %18
  br i1 %.not.i.i13, label %_ZNSt6vectorIN2cv3MatESaIS1_EE5clearEv.exit18, label %.lr.ph.i.i.i.i.i14

.lr.ph.i.i.i.i.i14:                               ; preds = %_ZNSt6vectorIN2cv3MatESaIS1_EE5clearEv.exit12, %.lr.ph.i.i.i.i.i14
  %.05.i.i.i.i.i15 = phi ptr [ %21, %.lr.ph.i.i.i.i.i14 ], [ %18, %_ZNSt6vectorIN2cv3MatESaIS1_EE5clearEv.exit12 ]
  tail call void @_ZN2cv3MatD1Ev(ptr noundef nonnull align 8 dereferenceable(96) %.05.i.i.i.i.i15) #31
  %21 = getelementptr inbounds nuw i8, ptr %.05.i.i.i.i.i15, i64 96
  %.not.i.i.i.i.i16 = icmp eq ptr %21, %20
  br i1 %.not.i.i.i.i.i16, label %_ZSt8_DestroyIPN2cv3MatES1_EvT_S3_RSaIT0_E.exit.i.i17, label %.lr.ph.i.i.i.i.i14, !llvm.loop !65

_ZSt8_DestroyIPN2cv3MatES1_EvT_S3_RSaIT0_E.exit.i.i17: ; preds = %.lr.ph.i.i.i.i.i14
  store ptr %18, ptr %19, align 8, !tbaa !64
  br label %_ZNSt6vectorIN2cv3MatESaIS1_EE5clearEv.exit18

_ZNSt6vectorIN2cv3MatESaIS1_EE5clearEv.exit18:    ; preds = %_ZNSt6vectorIN2cv3MatESaIS1_EE5clearEv.exit12, %_ZSt8_DestroyIPN2cv3MatES1_EvT_S3_RSaIT0_E.exit.i.i17
  %22 = getelementptr inbounds nuw i8, ptr %0, i64 496
  %23 = load ptr, ptr %22, align 8, !tbaa !61
  %24 = getelementptr inbounds nuw i8, ptr %0, i64 504
  %25 = load ptr, ptr %24, align 8, !tbaa !64
  %.not.i.i19 = icmp eq ptr %25, %23
  br i1 %.not.i.i19, label %_ZNSt6vectorIN2cv3MatESaIS1_EE5clearEv.exit24, label %.lr.ph.i.i.i.i.i20

.lr.ph.i.i.i.i.i20:                               ; preds = %_ZNSt6vectorIN2cv3MatESaIS1_EE5clearEv.exit18, %.lr.ph.i.i.i.i.i20
  %.05.i.i.i.i.i21 = phi ptr [ %26, %.lr.ph.i.i.i.i.i20 ], [ %23, %_ZNSt6vectorIN2cv3MatESaIS1_EE5clearEv.exit18 ]
  tail call void @_ZN2cv3MatD1Ev(ptr noundef nonnull align 8 dereferenceable(96) %.05.i.i.i.i.i21) #31
  %26 = getelementptr inbounds nuw i8, ptr %.05.i.i.i.i.i21, i64 96
  %.not.i.i.i.i.i22 = icmp eq ptr %26, %25
  br i1 %.not.i.i.i.i.i22, label %_ZSt8_DestroyIPN2cv3MatES1_EvT_S3_RSaIT0_E.exit.i.i23, label %.lr.ph.i.i.i.i.i20, !llvm.loop !65

_ZSt8_DestroyIPN2cv3MatES1_EvT_S3_RSaIT0_E.exit.i.i23: ; preds = %.lr.ph.i.i.i.i.i20
  store ptr %23, ptr %24, align 8, !tbaa !64
  br label %_ZNSt6vectorIN2cv3MatESaIS1_EE5clearEv.exit24

_ZNSt6vectorIN2cv3MatESaIS1_EE5clearEv.exit24:    ; preds = %_ZNSt6vectorIN2cv3MatESaIS1_EE5clearEv.exit18, %_ZSt8_DestroyIPN2cv3MatES1_EvT_S3_RSaIT0_E.exit.i.i23
  %27 = getelementptr inbounds nuw i8, ptr %0, i64 520
  %28 = load ptr, ptr %27, align 8, !tbaa !61
  %29 = getelementptr inbounds nuw i8, ptr %0, i64 528
  %30 = load ptr, ptr %29, align 8, !tbaa !64
  %.not.i.i25 = icmp eq ptr %30, %28
  br i1 %.not.i.i25, label %_ZNSt6vectorIN2cv3MatESaIS1_EE5clearEv.exit30, label %.lr.ph.i.i.i.i.i26

.lr.ph.i.i.i.i.i26:                               ; preds = %_ZNSt6vectorIN2cv3MatESaIS1_EE5clearEv.exit24, %.lr.ph.i.i.i.i.i26
  %.05.i.i.i.i.i27 = phi ptr [ %31, %.lr.ph.i.i.i.i.i26 ], [ %28, %_ZNSt6vectorIN2cv3MatESaIS1_EE5clearEv.exit24 ]
  tail call void @_ZN2cv3MatD1Ev(ptr noundef nonnull align 8 dereferenceable(96) %.05.i.i.i.i.i27) #31
  %31 = getelementptr inbounds nuw i8, ptr %.05.i.i.i.i.i27, i64 96
  %.not.i.i.i.i.i28 = icmp eq ptr %31, %30
  br i1 %.not.i.i.i.i.i28, label %_ZSt8_DestroyIPN2cv3MatES1_EvT_S3_RSaIT0_E.exit.i.i29, label %.lr.ph.i.i.i.i.i26, !llvm.loop !65

_ZSt8_DestroyIPN2cv3MatES1_EvT_S3_RSaIT0_E.exit.i.i29: ; preds = %.lr.ph.i.i.i.i.i26
  store ptr %28, ptr %29, align 8, !tbaa !64
  br label %_ZNSt6vectorIN2cv3MatESaIS1_EE5clearEv.exit30

_ZNSt6vectorIN2cv3MatESaIS1_EE5clearEv.exit30:    ; preds = %_ZNSt6vectorIN2cv3MatESaIS1_EE5clearEv.exit24, %_ZSt8_DestroyIPN2cv3MatES1_EvT_S3_RSaIT0_E.exit.i.i29
  %32 = getelementptr inbounds nuw i8, ptr %0, i64 544
  %33 = load ptr, ptr %32, align 8, !tbaa !61
  %34 = getelementptr inbounds nuw i8, ptr %0, i64 552
  %35 = load ptr, ptr %34, align 8, !tbaa !64
  %.not.i.i31 = icmp eq ptr %35, %33
  br i1 %.not.i.i31, label %_ZNSt6vectorIN2cv3MatESaIS1_EE5clearEv.exit36, label %.lr.ph.i.i.i.i.i32

.lr.ph.i.i.i.i.i32:                               ; preds = %_ZNSt6vectorIN2cv3MatESaIS1_EE5clearEv.exit30, %.lr.ph.i.i.i.i.i32
  %.05.i.i.i.i.i33 = phi ptr [ %36, %.lr.ph.i.i.i.i.i32 ], [ %33, %_ZNSt6vectorIN2cv3MatESaIS1_EE5clearEv.exit30 ]
  tail call void @_ZN2cv3MatD1Ev(ptr noundef nonnull align 8 dereferenceable(96) %.05.i.i.i.i.i33) #31
  %36 = getelementptr inbounds nuw i8, ptr %.05.i.i.i.i.i33, i64 96
  %.not.i.i.i.i.i34 = icmp eq ptr %36, %35
  br i1 %.not.i.i.i.i.i34, label %_ZSt8_DestroyIPN2cv3MatES1_EvT_S3_RSaIT0_E.exit.i.i35, label %.lr.ph.i.i.i.i.i32, !llvm.loop !65

_ZSt8_DestroyIPN2cv3MatES1_EvT_S3_RSaIT0_E.exit.i.i35: ; preds = %.lr.ph.i.i.i.i.i32
  store ptr %33, ptr %34, align 8, !tbaa !64
  br label %_ZNSt6vectorIN2cv3MatESaIS1_EE5clearEv.exit36

_ZNSt6vectorIN2cv3MatESaIS1_EE5clearEv.exit36:    ; preds = %_ZNSt6vectorIN2cv3MatESaIS1_EE5clearEv.exit30, %_ZSt8_DestroyIPN2cv3MatES1_EvT_S3_RSaIT0_E.exit.i.i35
  %37 = getelementptr inbounds nuw i8, ptr %0, i64 568
  %38 = load ptr, ptr %37, align 8, !tbaa !61
  %39 = getelementptr inbounds nuw i8, ptr %0, i64 576
  %40 = load ptr, ptr %39, align 8, !tbaa !64
  %.not.i.i37 = icmp eq ptr %40, %38
  br i1 %.not.i.i37, label %_ZNSt6vectorIN2cv3MatESaIS1_EE5clearEv.exit42, label %.lr.ph.i.i.i.i.i38

.lr.ph.i.i.i.i.i38:                               ; preds = %_ZNSt6vectorIN2cv3MatESaIS1_EE5clearEv.exit36, %.lr.ph.i.i.i.i.i38
  %.05.i.i.i.i.i39 = phi ptr [ %41, %.lr.ph.i.i.i.i.i38 ], [ %38, %_ZNSt6vectorIN2cv3MatESaIS1_EE5clearEv.exit36 ]
  tail call void @_ZN2cv3MatD1Ev(ptr noundef nonnull align 8 dereferenceable(96) %.05.i.i.i.i.i39) #31
  %41 = getelementptr inbounds nuw i8, ptr %.05.i.i.i.i.i39, i64 96
  %.not.i.i.i.i.i40 = icmp eq ptr %41, %40
  br i1 %.not.i.i.i.i.i40, label %_ZSt8_DestroyIPN2cv3MatES1_EvT_S3_RSaIT0_E.exit.i.i41, label %.lr.ph.i.i.i.i.i38, !llvm.loop !65

_ZSt8_DestroyIPN2cv3MatES1_EvT_S3_RSaIT0_E.exit.i.i41: ; preds = %.lr.ph.i.i.i.i.i38
  store ptr %38, ptr %39, align 8, !tbaa !64
  br label %_ZNSt6vectorIN2cv3MatESaIS1_EE5clearEv.exit42

_ZNSt6vectorIN2cv3MatESaIS1_EE5clearEv.exit42:    ; preds = %_ZNSt6vectorIN2cv3MatESaIS1_EE5clearEv.exit36, %_ZSt8_DestroyIPN2cv3MatES1_EvT_S3_RSaIT0_E.exit.i.i41
  %42 = getelementptr inbounds nuw i8, ptr %0, i64 592
  %43 = load ptr, ptr %42, align 8, !tbaa !61
  %44 = getelementptr inbounds nuw i8, ptr %0, i64 600
  %45 = load ptr, ptr %44, align 8, !tbaa !64
  %.not.i.i43 = icmp eq ptr %45, %43
  br i1 %.not.i.i43, label %_ZNSt6vectorIN2cv3MatESaIS1_EE5clearEv.exit48, label %.lr.ph.i.i.i.i.i44

.lr.ph.i.i.i.i.i44:                               ; preds = %_ZNSt6vectorIN2cv3MatESaIS1_EE5clearEv.exit42, %.lr.ph.i.i.i.i.i44
  %.05.i.i.i.i.i45 = phi ptr [ %46, %.lr.ph.i.i.i.i.i44 ], [ %43, %_ZNSt6vectorIN2cv3MatESaIS1_EE5clearEv.exit42 ]
  tail call void @_ZN2cv3MatD1Ev(ptr noundef nonnull align 8 dereferenceable(96) %.05.i.i.i.i.i45) #31
  %46 = getelementptr inbounds nuw i8, ptr %.05.i.i.i.i.i45, i64 96
  %.not.i.i.i.i.i46 = icmp eq ptr %46, %45
  br i1 %.not.i.i.i.i.i46, label %_ZSt8_DestroyIPN2cv3MatES1_EvT_S3_RSaIT0_E.exit.i.i47, label %.lr.ph.i.i.i.i.i44, !llvm.loop !65

_ZSt8_DestroyIPN2cv3MatES1_EvT_S3_RSaIT0_E.exit.i.i47: ; preds = %.lr.ph.i.i.i.i.i44
  store ptr %43, ptr %44, align 8, !tbaa !64
  br label %_ZNSt6vectorIN2cv3MatESaIS1_EE5clearEv.exit48

_ZNSt6vectorIN2cv3MatESaIS1_EE5clearEv.exit48:    ; preds = %_ZNSt6vectorIN2cv3MatESaIS1_EE5clearEv.exit42, %_ZSt8_DestroyIPN2cv3MatES1_EvT_S3_RSaIT0_E.exit.i.i47
  ret void
}